; Function Attrs: nounwind uwtable
define dso_local void @record_plan_function_dependency(ptr noundef readonly captures(none) %0, i32 noundef %1) local_unnamed_addr #0 {
  %3 = icmp ugt i32 %1, 11999
  br i1 %3, label %4, label %17

4:                                                ; preds = %2
  %5 = tail call noundef ptr @palloc0(i64 noundef 12) #8
  store i32 378, ptr %5, align 4
  %6 = getelementptr inbounds nuw i8, ptr %5, i64 4
  store i32 47, ptr %6, align 4
  %7 = zext i32 %1 to i64
  %8 = tail call i32 @GetSysCacheHashValue(i32 noundef 47, i64 noundef %7, i64 noundef 0, i64 noundef 0, i64 noundef 0) #8
  %9 = getelementptr inbounds nuw i8, ptr %5, i64 8
  store i32 %8, ptr %9, align 4
  %10 = getelementptr inbounds nuw i8, ptr %0, i64 16
  %11 = load ptr, ptr %10, align 8
  %12 = getelementptr inbounds nuw i8, ptr %11, i64 120
  %13 = load ptr, ptr %12, align 8
  %14 = tail call ptr @lappend(ptr noundef %13, ptr noundef nonnull %5) #8
  %15 = load ptr, ptr %10, align 8
  %16 = getelementptr inbounds nuw i8, ptr %15, i64 120
  store ptr %14, ptr %16, align 8
  br label %17

17:                                               ; preds = %4, %2
  ret void
}